target datalayout = "e-m:e-p270:32:32-p271:32:32-p272:64:64-i64:64-f80:128-n8:16:32:64-S128"
target triple = "x86_64-pc-linux-gnu"

@.str = private unnamed_addr constant [4 x i8] c"%d \00", align 1
@.str.1 = private unnamed_addr constant [12 x i8] c"%lf %lf %lf\00", align 1
@.str.2 = private unnamed_addr constant [47 x i8] c"(%.0lf,%.0lf,%.0lf)-(%.0lf,%.0lf,%.0lf)=%.2lf\0A\00", align 1

; Function Attrs: noinline nounwind uwtable
define dso_local i32 @main() #0 {
  %1 = alloca i32, align 4
  %2 = alloca i32, align 4
  %3 = alloca i32, align 4
  %4 = alloca i32, align 4
  %5 = alloca i32, align 4
  %6 = alloca i32, align 4
  %7 = alloca i32, align 4
  %8 = alloca i32, align 4
  %9 = alloca [46 x i32], align 16
  %10 = alloca [46 x i32], align 16
  %11 = alloca i32, align 4
  %12 = alloca [11 x double], align 16
  %13 = alloca [11 x double], align 16
  %14 = alloca [11 x double], align 16
  %15 = alloca [46 x double], align 16
  %16 = alloca double, align 8
  store i32 0, i32* %1, align 4
  store i32 1, i32* %5, align 4
  %17 = call i32 (i8*, ...) @__isoc99_scanf(i8* getelementptr inbounds ([4 x i8], [4 x i8]* @.str, i64 0, i64 0), i32* %8)
  store i32 1, i32* %2, align 4
  br label %18

18:                                               ; preds = %33, %0
  %19 = load i32, i32* %2, align 4
  %20 = load i32, i32* %8, align 4
  %21 = icmp sle i32 %19, %20
  br i1 %21, label %22, label %36

22:                                               ; preds = %18
  %23 = load i32, i32* %2, align 4
  %24 = sext i32 %23 to i64
  %25 = getelementptr inbounds [11 x double], [11 x double]* %12, i64 0, i64 %24
  %26 = load i32, i32* %2, align 4
  %27 = sext i32 %26 to i64
  %28 = getelementptr inbounds [11 x double], [11 x double]* %13, i64 0, i64 %27
  %29 = load i32, i32* %2, align 4
  %30 = sext i32 %29 to i64
  %31 = getelementptr inbounds [11 x double], [11 x double]* %14, i64 0, i64 %30
  %32 = call i32 (i8*, ...) @__isoc99_scanf(i8* getelementptr inbounds ([12 x i8], [12 x i8]* @.str.1, i64 0, i64 0), double* %25, double* %28, double* %31)
  br label %33

33:                                               ; preds = %22
  %34 = load i32, i32* %2, align 4
  %35 = add nsw i32 %34, 1
  store i32 %35, i32* %2, align 4
  br label %18

36:                                               ; preds = %18
  store i32 1, i32* %3, align 4
  br label %37

37:                                               ; preds = %126, %36
  %38 = load i32, i32* %3, align 4
  %39 = load i32, i32* %8, align 4
  %40 = icmp slt i32 %38, %39
  br i1 %40, label %41, label %129

41:                                               ; preds = %37
  %42 = load i32, i32* %3, align 4
  %43 = add nsw i32 %42, 1
  store i32 %43, i32* %4, align 4
  br label %44

44:                                               ; preds = %122, %41
  %45 = load i32, i32* %4, align 4
  %46 = load i32, i32* %8, align 4
  %47 = icmp sle i32 %45, %46
  br i1 %47, label %48, label %125

48:                                               ; preds = %44
  %49 = load i32, i32* %3, align 4
  %50 = sext i32 %49 to i64
  %51 = getelementptr inbounds [11 x double], [11 x double]* %12, i64 0, i64 %50
  %52 = load double, double* %51, align 8
  %53 = load i32, i32* %4, align 4
  %54 = sext i32 %53 to i64
  %55 = getelementptr inbounds [11 x double], [11 x double]* %12, i64 0, i64 %54
  %56 = load double, double* %55, align 8
  %57 = fsub double %52, %56
  %58 = load i32, i32* %3, align 4
  %59 = sext i32 %58 to i64
  %60 = getelementptr inbounds [11 x double], [11 x double]* %12, i64 0, i64 %59
  %61 = load double, double* %60, align 8
  %62 = load i32, i32* %4, align 4
  %63 = sext i32 %62 to i64
  %64 = getelementptr inbounds [11 x double], [11 x double]* %12, i64 0, i64 %63
  %65 = load double, double* %64, align 8
  %66 = fsub double %61, %65
  %67 = fmul double %57, %66
  %68 = load i32, i32* %3, align 4
  %69 = sext i32 %68 to i64
  %70 = getelementptr inbounds [11 x double], [11 x double]* %13, i64 0, i64 %69
  %71 = load double, double* %70, align 8
  %72 = load i32, i32* %4, align 4
  %73 = sext i32 %72 to i64
  %74 = getelementptr inbounds [11 x double], [11 x double]* %13, i64 0, i64 %73
  %75 = load double, double* %74, align 8
  %76 = fsub double %71, %75
  %77 = load i32, i32* %3, align 4
  %78 = sext i32 %77 to i64
  %79 = getelementptr inbounds [11 x double], [11 x double]* %13, i64 0, i64 %78
  %80 = load double, double* %79, align 8
  %81 = load i32, i32* %4, align 4
  %82 = sext i32 %81 to i64
  %83 = getelementptr inbounds [11 x double], [11 x double]* %13, i64 0, i64 %82
  %84 = load double, double* %83, align 8
  %85 = fsub double %80, %84
  %86 = fmul double %76, %85
  %87 = fadd double %67, %86
  %88 = load i32, i32* %3, align 4
  %89 = sext i32 %88 to i64
  %90 = getelementptr inbounds [11 x double], [11 x double]* %14, i64 0, i64 %89
  %91 = load double, double* %90, align 8
  %92 = load i32, i32* %4, align 4
  %93 = sext i32 %92 to i64
  %94 = getelementptr inbounds [11 x double], [11 x double]* %14, i64 0, i64 %93
  %95 = load double, double* %94, align 8
  %96 = fsub double %91, %95
  %97 = load i32, i32* %3, align 4
  %98 = sext i32 %97 to i64
  %99 = getelementptr inbounds [11 x double], [11 x double]* %14, i64 0, i64 %98
  %100 = load double, double* %99, align 8
  %101 = load i32, i32* %4, align 4
  %102 = sext i32 %101 to i64
  %103 = getelementptr inbounds [11 x double], [11 x double]* %14, i64 0, i64 %102
  %104 = load double, double* %103, align 8
  %105 = fsub double %100, %104
  %106 = fmul double %96, %105
  %107 = fadd double %87, %106
  %108 = call double @sqrt(double %107) #3
  %109 = load i32, i32* %5, align 4
  %110 = sext i32 %109 to i64
  %111 = getelementptr inbounds [46 x double], [46 x double]* %15, i64 0, i64 %110
  store double %108, double* %111, align 8
  %112 = load i32, i32* %3, align 4
  %113 = load i32, i32* %5, align 4
  %114 = sext i32 %113 to i64
  %115 = getelementptr inbounds [46 x i32], [46 x i32]* %9, i64 0, i64 %114
  store i32 %112, i32* %115, align 4
  %116 = load i32, i32* %4, align 4
  %117 = load i32, i32* %5, align 4
  %118 = sext i32 %117 to i64
  %119 = getelementptr inbounds [46 x i32], [46 x i32]* %10, i64 0, i64 %118
  store i32 %116, i32* %119, align 4
  %120 = load i32, i32* %5, align 4
  %121 = add nsw i32 %120, 1
  store i32 %121, i32* %5, align 4
  br label %122

122:                                              ; preds = %48
  %123 = load i32, i32* %4, align 4
  %124 = add nsw i32 %123, 1
  store i32 %124, i32* %4, align 4
  br label %44

125:                                              ; preds = %44
  br label %126

126:                                              ; preds = %125
  %127 = load i32, i32* %3, align 4
  %128 = add nsw i32 %127, 1
  store i32 %128, i32* %3, align 4
  br label %37

129:                                              ; preds = %37
  store i32 1, i32* %6, align 4
  br label %130

130:                                              ; preds = %225, %129
  %131 = load i32, i32* %6, align 4
  %132 = load i32, i32* %8, align 4
  %133 = load i32, i32* %8, align 4
  %134 = sub nsw i32 %133, 1
  %135 = mul nsw i32 %132, %134
  %136 = sdiv i32 %135, 2
  %137 = icmp slt i32 %131, %136
  br i1 %137, label %138, label %228

138:                                              ; preds = %130
  %139 = load i32, i32* %6, align 4
  %140 = add nsw i32 %139, 1
  store i32 %140, i32* %7, align 4
  br label %141

141:                                              ; preds = %221, %138
  %142 = load i32, i32* %7, align 4
  %143 = load i32, i32* %8, align 4
  %144 = load i32, i32* %8, align 4
  %145 = sub nsw i32 %144, 1
  %146 = mul nsw i32 %143, %145
  %147 = icmp sle i32 %142, %146
  br i1 %147, label %148, label %224

148:                                              ; preds = %141
  %149 = load i32, i32* %6, align 4
  %150 = sext i32 %149 to i64
  %151 = getelementptr inbounds [46 x double], [46 x double]* %15, i64 0, i64 %150
  %152 = load double, double* %151, align 8
  %153 = load i32, i32* %7, align 4
  %154 = sext i32 %153 to i64
  %155 = getelementptr inbounds [46 x double], [46 x double]* %15, i64 0, i64 %154
  %156 = load double, double* %155, align 8
  %157 = fcmp olt double %152, %156
  br i1 %157, label %158, label %220

158:                                              ; preds = %148
  %159 = load i32, i32* %7, align 4
  store i32 %159, i32* %2, align 4
  br label %160

160:                                              ; preds = %216, %158
  %161 = load i32, i32* %2, align 4
  %162 = load i32, i32* %6, align 4
  %163 = icmp sgt i32 %161, %162
  br i1 %163, label %164, label %219

164:                                              ; preds = %160
  %165 = load i32, i32* %2, align 4
  %166 = sext i32 %165 to i64
  %167 = getelementptr inbounds [46 x double], [46 x double]* %15, i64 0, i64 %166
  %168 = load double, double* %167, align 8
  store double %168, double* %16, align 8
  %169 = load i32, i32* %2, align 4
  %170 = sub nsw i32 %169, 1
  %171 = sext i32 %170 to i64
  %172 = getelementptr inbounds [46 x double], [46 x double]* %15, i64 0, i64 %171
  %173 = load double, double* %172, align 8
  %174 = load i32, i32* %2, align 4
  %175 = sext i32 %174 to i64
  %176 = getelementptr inbounds [46 x double], [46 x double]* %15, i64 0, i64 %175
  store double %173, double* %176, align 8
  %177 = load double, double* %16, align 8
  %178 = load i32, i32* %2, align 4
  %179 = sub nsw i32 %178, 1
  %180 = sext i32 %179 to i64
  %181 = getelementptr inbounds [46 x double], [46 x double]* %15, i64 0, i64 %180
  store double %177, double* %181, align 8
  %182 = load i32, i32* %2, align 4
  %183 = sext i32 %182 to i64
  %184 = getelementptr inbounds [46 x i32], [46 x i32]* %9, i64 0, i64 %183
  %185 = load i32, i32* %184, align 4
  store i32 %185, i32* %11, align 4
  %186 = load i32, i32* %2, align 4
  %187 = sub nsw i32 %186, 1
  %188 = sext i32 %187 to i64
  %189 = getelementptr inbounds [46 x i32], [46 x i32]* %9, i64 0, i64 %188
  %190 = load i32, i32* %189, align 4
  %191 = load i32, i32* %2, align 4
  %192 = sext i32 %191 to i64
  %193 = getelementptr inbounds [46 x i32], [46 x i32]* %9, i64 0, i64 %192
  store i32 %190, i32* %193, align 4
  %194 = load i32, i32* %11, align 4
  %195 = load i32, i32* %2, align 4
  %196 = sub nsw i32 %195, 1
  %197 = sext i32 %196 to i64
  %198 = getelementptr inbounds [46 x i32], [46 x i32]* %9, i64 0, i64 %197
  store i32 %194, i32* %198, align 4
  %199 = load i32, i32* %2, align 4
  %200 = sext i32 %199 to i64
  %201 = getelementptr inbounds [46 x i32], [46 x i32]* %10, i64 0, i64 %200
  %202 = load i32, i32* %201, align 4
  store i32 %202, i32* %11, align 4
  %203 = load i32, i32* %2, align 4
  %204 = sub nsw i32 %203, 1
  %205 = sext i32 %204 to i64
  %206 = getelementptr inbounds [46 x i32], [46 x i32]* %10, i64 0, i64 %205
  %207 = load i32, i32* %206, align 4
  %208 = load i32, i32* %2, align 4
  %209 = sext i32 %208 to i64
  %210 = getelementptr inbounds [46 x i32], [46 x i32]* %10, i64 0, i64 %209
  store i32 %207, i32* %210, align 4
  %211 = load i32, i32* %11, align 4
  %212 = load i32, i32* %2, align 4
  %213 = sub nsw i32 %212, 1
  %214 = sext i32 %213 to i64
  %215 = getelementptr inbounds [46 x i32], [46 x i32]* %10, i64 0, i64 %214
  store i32 %211, i32* %215, align 4
  br label %216

216:                                              ; preds = %164
  %217 = load i32, i32* %2, align 4
  %218 = add nsw i32 %217, -1
  store i32 %218, i32* %2, align 4
  br label %160

219:                                              ; preds = %160
  br label %220

220:                                              ; preds = %219, %148
  br label %221

221:                                              ; preds = %220
  %222 = load i32, i32* %7, align 4
  %223 = add nsw i32 %222, 1
  store i32 %223, i32* %7, align 4
  br label %141

224:                                              ; preds = %141
  br label %225

225:                                              ; preds = %224
  %226 = load i32, i32* %6, align 4
  %227 = add nsw i32 %226, 1
  store i32 %227, i32* %6, align 4
  br label %130

228:                                              ; preds = %130
  store i32 1, i32* %2, align 4
  br label %229

229:                                              ; preds = %285, %228
  %230 = load i32, i32* %2, align 4
  %231 = load i32, i32* %8, align 4
  %232 = load i32, i32* %8, align 4
  %233 = sub nsw i32 %232, 1
  %234 = mul nsw i32 %231, %233
  %235 = sdiv i32 %234, 2
  %236 = icmp sle i32 %230, %235
  br i1 %236, label %237, label %288

237:                                              ; preds = %229
  %238 = load i32, i32* %2, align 4
  %239 = sext i32 %238 to i64
  %240 = getelementptr inbounds [46 x i32], [46 x i32]* %9, i64 0, i64 %239
  %241 = load i32, i32* %240, align 4
  %242 = sext i32 %241 to i64
  %243 = getelementptr inbounds [11 x double], [11 x double]* %12, i64 0, i64 %242
  %244 = load double, double* %243, align 8
  %245 = load i32, i32* %2, align 4
  %246 = sext i32 %245 to i64
  %247 = getelementptr inbounds [46 x i32], [46 x i32]* %9, i64 0, i64 %246
  %248 = load i32, i32* %247, align 4
  %249 = sext i32 %248 to i64
  %250 = getelementptr inbounds [11 x double], [11 x double]* %13, i64 0, i64 %249
  %251 = load double, double* %250, align 8
  %252 = load i32, i32* %2, align 4
  %253 = sext i32 %252 to i64
  %254 = getelementptr inbounds [46 x i32], [46 x i32]* %9, i64 0, i64 %253
  %255 = load i32, i32* %254, align 4
  %256 = sext i32 %255 to i64
  %257 = getelementptr inbounds [11 x double], [11 x double]* %14, i64 0, i64 %256
  %258 = load double, double* %257, align 8
  %259 = load i32, i32* %2, align 4
  %260 = sext i32 %259 to i64
  %261 = getelementptr inbounds [46 x i32], [46 x i32]* %10, i64 0, i64 %260
  %262 = load i32, i32* %261, align 4
  %263 = sext i32 %262 to i64
  %264 = getelementptr inbounds [11 x double], [11 x double]* %12, i64 0, i64 %263
  %265 = load double, double* %264, align 8
  %266 = load i32, i32* %2, align 4
  %267 = sext i32 %266 to i64
  %268 = getelementptr inbounds [46 x i32], [46 x i32]* %10, i64 0, i64 %267
  %269 = load i32, i32* %268, align 4
  %270 = sext i32 %269 to i64
  %271 = getelementptr inbounds [11 x double], [11 x double]* %13, i64 0, i64 %270
  %272 = load double, double* %271, align 8
  %273 = load i32, i32* %2, align 4
  %274 = sext i32 %273 to i64
  %275 = getelementptr inbounds [46 x i32], [46 x i32]* %10, i64 0, i64 %274
  %276 = load i32, i32* %275, align 4
  %277 = sext i32 %276 to i64
  %278 = getelementptr inbounds [11 x double], [11 x double]* %14, i64 0, i64 %277
  %279 = load double, double* %278, align 8
  %280 = load i32, i32* %2, align 4
  %281 = sext i32 %280 to i64
  %282 = getelementptr inbounds [46 x double], [46 x double]* %15, i64 0, i64 %281
  %283 = load double, double* %282, align 8
  %284 = call i32 (i8*, ...) @printf(i8* getelementptr inbounds ([47 x i8], [47 x i8]* @.str.2, i64 0, i64 0), double %244, double %251, double %258, double %265, double %272, double %279, double %283)
  br label %285

285:                                              ; preds = %237
  %286 = load i32, i32* %2, align 4
  %287 = add nsw i32 %286, 1
  store i32 %287, i32* %2, align 4
  br label %229

288:                                              ; preds = %229
  ret i32 0
}